Certificate:
    Data:
        Version: 1 (0x0)
        Serial Number: 4097 (0x1001)
    Signature Algorithm: sha256WithRSAEncryption
        Issuer: CN=Interm.
        Validity
            Not Before: Aug 20 10:39:43 2020 GMT
            Not After : Aug 18 10:39:43 2030 GMT
        Subject: CN=client.example.com
        Subject Public Key Info:
            Public Key Algorithm: rsaEncryption
                Public-Key: (2048 bit)
                Modulus:
                    00:e1:80:70:87:b9:dc:02:6f:3d:31:a6:c0:c5:24:
                    7f:8d:94:21:23:3c:68:1c:d5:32:e0:02:9d:ac:44:
                    dd:85:15:f7:a4:58:c8:fe:ad:77:74:1c:44:da:57:
                    4b:bf:fd:cc:03:a7:f6:a4:64:30:8c:53:2e:77:76:
                    47:d5:a9:bc:8f:45:63:dd:0d:9f:2d:00:64:e6:69:
                    1d:86:85:09:1c:8c:a5:55:d5:1f:1c:a3:8d:96:1e:
                    73:fd:e6:cf:7a:02:12:16:29:2d:11:ba:eb:51:79:
                    d9:ce:7d:97:71:02:0d:cc:63:fa:e4:8d:fe:87:41:
                    43:52:ed:53:2a:dd:2a:9a:d3:0a:0e:04:39:5d:d9:
                    65:5e:77:e6:80:11:50:aa:3f:21:d5:4b:e9:36:0b:
                    bc:6f:01:e8:01:b7:ed:d9:c7:32:a8:b4:1c:3d:67:
                    0b:ae:c8:aa:03:2a:c7:21:2a:c9:45:c7:7b:65:77:
                    be:4f:4f:57:ee:6c:54:d8:4f:52:5f:28:68:10:41:
                    08:70:f0:77:36:91:46:26:1d:51:b9:15:fa:bd:42:
                    53:ba:ee:16:84:df:d5:07:d9:98:38:1b:8b:17:2a:
                    36:db:33:be:45:77:18:91:a1:a2:9c:48:8f:0b:1f:
                    9d:9a:d2:fc:26:87:5d:51:71:e4:c7:d7:1d:6c:a1:
                    c1:63
                Exponent: 65537 (0x10001)
    Signature Algorithm: sha256WithRSAEncryption
         6c:71:b8:78:36:10:b6:a7:4f:05:51:54:39:94:25:9c:9f:af:
         15:67:a3:ec:c6:0c:c8:a8:bd:f8:0d:6a:32:c1:03:16:db:31:
         e9:19:87:bd:75:fd:94:7a:52:a2:f8:72:c8:e2:37:33:fd:ed:
         a7:74:e5:5a:e3:a8:fe:1c:71:4e:ea:be:2c:03:ec:1d:7f:3a:
         70:16:e6:cd:0e:f2:77:49:8f:cd:29:fb:ae:11:d6:33:0d:7e:
         2c:9e:60:b0:c4:9b:6f:8b:13:dd:98:04:ed:6e:8d:1a:b4:8d:
         76:89:e3:d3:f8:b1:09:d0:77:32:1b:34:5f:0e:9b:40:87:0e:
         74:79:45:dd:1c:81:a0:5d:96:51:68:95:88:84:18:3b:b8:cf:
         b1:ea:fd:96:14:39:4b:16:1d:82:2f:b4:01:db:c5:4c:9c:be:
         80:bd:4d:a7:20:ef:c9:45:9f:ad:84:d9:b5:b6:cd:42:a7:ea:
         75:1f:9a:5f:f1:23:f5:43:6f:84:e1:f6:29:f4:01:4f:60:a6:
         99:56:8b:07:62:37:34:a8:14:f2:0f:32:4f:51:14:62:4c:bd:
         35:f4:d9:14:f1:6c:a9:a5:c4:72:04:3b:c0:b0:26:bb:ae:5e:
         9a:ad:99:03:27:49:86:9c:86:13:17:95:7a:bb:14:9a:ab:8d:
         58:1d:77:6c
-----BEGIN CERTIFICATE-----
MIICpDCCAYwCAhABMA0GCSqGSIb3DQEBCwUAMBIxEDAOBgNVBAMMB0ludGVybS4w
HhcNMjAwODIwMTAzOTQzWhcNMzAwODE4MTAzOTQzWjAdMRswGQYDVQQDDBJjbGll
bnQuZXhhbXBsZS5jb20wggEiMA0GCSqGSIb3DQEBAQUAA4IBDwAwggEKAoIBAQDh
gHCHudwCbz0xpsDFJH+NlCEjPGgc1TLgAp2sRN2FFfekWMj+rXd0HETaV0u//cwD
p/akZDCMUy53dkfVqbyPRWPdDZ8tAGTmaR2GhQkcjKVV1R8co42WHnP95s96AhIW
KS0RuutRednOfZdxAg3MY/rkjf6HQUNS7VMq3Sqa0woOBDld2WVed+aAEVCqPyHV
S+k2C7xvAegBt+3ZxzKotBw9ZwuuyKoDKschKslFx3tld75PT1fubFTYT1JfKGgQ
QQhw8Hc2kUYmHVG5Ffq9QlO67haE39UH2Zg4G4sXKjbbM75FdxiRoaKcSI8LH52a
0vwmh11RceTH1x1socFjAgMBAAEwDQYJKoZIhvcNAQELBQADggEBAGxxuHg2ELan
TwVRVDmUJZyfrxVno+zGDMiovfgNajLBAxbbMekZh711/ZR6UqL4csjiNzP97ad0
5VrjqP4ccU7qviwD7B1/OnAW5s0O8ndJj80p+64R1jMNfiyeYLDEm2+LE92YBO1u
jRq0jXaJ49P4sQnQdzIbNF8Om0CHDnR5Rd0cgaBdllFolYiEGDu4z7Hq/ZYUOUsW
HYIvtAHbxUycvoC9Tacg78lFn62E2bW2zUKn6nUfml/xI/VDb4Th9in0AU9gpplW
iwdiNzSoFPIPMk9RFGJMvTX02RTxbKmlxHIEO8CwJruuXpqtmQMnSYachhMXlXq7
FJqrjVgdd2w=
-----END CERTIFICATE-----
